---
triple:          'arm64-apple-darwin'
binary-path:     '/Users/yahyahajali/Competitive Programming/output/A_Binary_Search'
relocations:
  - { offsetInCU: 0x3F, offset: 0x3F, size: 0x8, addend: 0x0, symName: _mod, symObjAddr: 0x3560, symBinAddr: 0x10000C000, symSize: 0x0 }
  - { offsetInCU: 0x4681, offset: 0x4681, size: 0x8, addend: 0x0, symName: __ZNSt3__124__put_character_sequenceB7v160006IcNS_11char_traitsIcEEEERNS_13basic_ostreamIT_T0_EES7_PKS4_m, symObjAddr: 0x2B60, symBinAddr: 0x100007104, symSize: 0x1F4 }
  - { offsetInCU: 0x5F4D, offset: 0x5F4D, size: 0x8, addend: 0x0, symName: __ZNSt3__1neB7v160006IPNS_4pairIiiEEEEbRKNS_11__wrap_iterIT_EES8_, symObjAddr: 0x554, symBinAddr: 0x100004AF8, symSize: 0x34 }
  - { offsetInCU: 0x5F90, offset: 0x5F90, size: 0x8, addend: 0x0, symName: __ZNSt3__1rsB7v160006IcNS_11char_traitsIcEENS_9allocatorIcEEEERNS_13basic_istreamIT_T0_EES9_RNS_12basic_stringIS6_S7_T1_EE, symObjAddr: 0x618, symBinAddr: 0x100004BBC, symSize: 0x324 }
  - { offsetInCU: 0x605F, offset: 0x605F, size: 0x8, addend: 0x0, symName: __ZNSt3__1eqB7v160006IcNS_11char_traitsIcEENS_9allocatorIcEEEEbRKNS_12basic_stringIT_T0_T1_EEPKS6_, symObjAddr: 0x93C, symBinAddr: 0x100004EE0, symSize: 0xC0 }
  - { offsetInCU: 0x60C6, offset: 0x60C6, size: 0x8, addend: 0x0, symName: __ZNSt3__1eqB7v160006IiiEEbRKNS_4pairIT_T0_EES6_, symObjAddr: 0x9FC, symBinAddr: 0x100004FA0, symSize: 0x64 }
  - { offsetInCU: 0x6115, offset: 0x6115, size: 0x8, addend: 0x0, symName: __ZNSt3__1lsB7v160006INS_11char_traitsIcEEEERNS_13basic_ostreamIcT_EES6_PKc, symObjAddr: 0xA84, symBinAddr: 0x100005028, symSize: 0x48 }
  - { offsetInCU: 0x615B, offset: 0x615B, size: 0x8, addend: 0x0, symName: __ZNSt3__14endlB7v160006IcNS_11char_traitsIcEEEERNS_13basic_ostreamIT_T0_EES7_, symObjAddr: 0xAF8, symBinAddr: 0x10000509C, symSize: 0x58 }
  - { offsetInCU: 0x619B, offset: 0x619B, size: 0x8, addend: 0x0, symName: __ZNSt3__1gtB7v160006IiiEEbRKNS_4pairIT_T0_EES6_, symObjAddr: 0xB50, symBinAddr: 0x1000050F4, symSize: 0x30 }
  - { offsetInCU: 0x61EA, offset: 0x61EA, size: 0x8, addend: 0x0, symName: __ZNSt3__1ltB7v160006IiiEEbRKNS_4pairIT_T0_EES6_, symObjAddr: 0xB80, symBinAddr: 0x100005124, symSize: 0x98 }
  - { offsetInCU: 0x6239, offset: 0x6239, size: 0x8, addend: 0x0, symName: __ZNSt3__122__make_exception_guardB7v160006INS_6vectorINS_4pairIiiEENS_9allocatorIS3_EEE16__destroy_vectorEEENS_28__exception_guard_exceptionsIT_EES9_, symObjAddr: 0xD74, symBinAddr: 0x100005318, symSize: 0x40 }
  - { offsetInCU: 0x626E, offset: 0x626E, size: 0x8, addend: 0x0, symName: __ZNSt3__119__debug_db_insert_cB7v160006INS_6vectorINS_4pairIiiEENS_9allocatorIS3_EEEEEEvPT_, symObjAddr: 0xDE8, symBinAddr: 0x10000538C, symSize: 0x10 }
  - { offsetInCU: 0x629F, offset: 0x629F, size: 0x8, addend: 0x0, symName: __ZNSt3__119__allocate_at_leastB7v160006INS_9allocatorINS_4pairIiiEEEEEENS_19__allocation_resultINS_16allocator_traitsIT_E7pointerEEERS7_m, symObjAddr: 0x118C, symBinAddr: 0x100005730, symSize: 0x40 }
  - { offsetInCU: 0x62E2, offset: 0x62E2, size: 0x8, addend: 0x0, symName: __ZNSt3__13minB7v160006ImEERKT_S3_S3_, symObjAddr: 0x12C8, symBinAddr: 0x10000586C, symSize: 0x2C }
  - { offsetInCU: 0x6526, offset: 0x6526, size: 0x8, addend: 0x0, symName: __ZNSt3__13minB7v160006ImNS_6__lessImmEEEERKT_S5_S5_T0_, symObjAddr: 0x1354, symBinAddr: 0x1000058F8, symSize: 0x54 }
  - { offsetInCU: 0x65BB, offset: 0x65BB, size: 0x8, addend: 0x0, symName: __ZNSt3__120__throw_length_errorB7v160006EPKc, symObjAddr: 0x1430, symBinAddr: 0x1000059D4, symSize: 0x64 }
  - { offsetInCU: 0x65E3, offset: 0x65E3, size: 0x8, addend: 0x0, symName: __ZNSt3__130__libcpp_is_constant_evaluatedB7v160006Ev, symObjAddr: 0x15CC, symBinAddr: 0x100005B70, symSize: 0xC }
  - { offsetInCU: 0x6600, offset: 0x6600, size: 0x8, addend: 0x0, symName: __ZNSt3__117__libcpp_allocateB7v160006Emm, symObjAddr: 0x15D8, symBinAddr: 0x100005B7C, symSize: 0x28 }
  - { offsetInCU: 0x663D, offset: 0x663D, size: 0x8, addend: 0x0, symName: __ZNSt3__121__libcpp_operator_newB7v160006IJmEEEPvDpT_, symObjAddr: 0x1600, symBinAddr: 0x100005BA4, symSize: 0x24 }
  - { offsetInCU: 0x6676, offset: 0x6676, size: 0x8, addend: 0x0, symName: __ZNSt3__112__to_addressB7v160006INS_4pairIiiEEEEPT_S4_, symObjAddr: 0x171C, symBinAddr: 0x100005CC0, symSize: 0x14 }
  - { offsetInCU: 0x66AB, offset: 0x66AB, size: 0x8, addend: 0x0, symName: __ZNSt3__118__debug_db_erase_cB7v160006INS_6vectorINS_4pairIiiEENS_9allocatorIS3_EEEEEEvPT_, symObjAddr: 0x1A4C, symBinAddr: 0x100005FF0, symSize: 0x10 }
  - { offsetInCU: 0x66DC, offset: 0x66DC, size: 0x8, addend: 0x0, symName: __ZNSt3__119__libcpp_deallocateB7v160006EPvmm, symObjAddr: 0x1C30, symBinAddr: 0x1000061D4, symSize: 0x30 }
  - { offsetInCU: 0x6724, offset: 0x6724, size: 0x8, addend: 0x0, symName: __ZNSt3__127__do_deallocate_handle_sizeB7v160006IJEEEvPvmDpT_, symObjAddr: 0x1C60, symBinAddr: 0x100006204, symSize: 0x28 }
  - { offsetInCU: 0x6762, offset: 0x6762, size: 0x8, addend: 0x0, symName: __ZNSt3__124__libcpp_operator_deleteB7v160006IJPvEEEvDpT_, symObjAddr: 0x1C88, symBinAddr: 0x10000622C, symSize: 0x24 }
  - { offsetInCU: 0x6797, offset: 0x6797, size: 0x8, addend: 0x0, symName: __ZNSt3__1eqB7v160006IPNS_4pairIiiEEEEbRKNS_11__wrap_iterIT_EES8_, symObjAddr: 0x1D7C, symBinAddr: 0x100006320, symSize: 0x48 }
  - { offsetInCU: 0x67DA, offset: 0x67DA, size: 0x8, addend: 0x0, symName: __ZNSt3__119__debug_db_insert_cB7v160006INS_12basic_stringIcNS_11char_traitsIcEENS_9allocatorIcEEEEEEvPT_, symObjAddr: 0x1E5C, symBinAddr: 0x100006400, symSize: 0x10 }
  - { offsetInCU: 0x6DA0, offset: 0x6DA0, size: 0x8, addend: 0x0, symName: __ZNSt3__19use_facetB7v160006INS_5ctypeIcEEEERKT_RKNS_6localeE, symObjAddr: 0x2498, symBinAddr: 0x100006A3C, symSize: 0x2C }
  - { offsetInCU: 0x7180, offset: 0x7180, size: 0x8, addend: 0x0, symName: __ZNSt3__125__debug_db_invalidate_allB7v160006INS_12basic_stringIcNS_11char_traitsIcEENS_9allocatorIcEEEEEEvPT_, symObjAddr: 0x2774, symBinAddr: 0x100006D18, symSize: 0x10 }
  - { offsetInCU: 0x73E6, offset: 0x73E6, size: 0x8, addend: 0x0, symName: __ZNSt3__118__constexpr_strlenB7v160006EPKc, symObjAddr: 0x2AE0, symBinAddr: 0x100007084, symSize: 0x24 }
  - { offsetInCU: 0x7412, offset: 0x7412, size: 0x8, addend: 0x0, symName: __ZNSt3__116__pad_and_outputB7v160006IcNS_11char_traitsIcEEEENS_19ostreambuf_iteratorIT_T0_EES6_PKS4_S8_S8_RNS_8ios_baseES4_, symObjAddr: 0x2D70, symBinAddr: 0x100007314, symSize: 0x248 }
  - { offsetInCU: 0x74E1, offset: 0x74E1, size: 0x8, addend: 0x0, symName: __ZNSt3__112__to_addressB7v160006IKcEEPT_S3_, symObjAddr: 0x3180, symBinAddr: 0x100007724, symSize: 0x14 }
  - { offsetInCU: 0x76EF, offset: 0x76EF, size: 0x8, addend: 0x0, symName: __ZSt28__throw_bad_array_new_lengthB7v160006v, symObjAddr: 0x1598, symBinAddr: 0x100005B3C, symSize: 0x34 }
  - { offsetInCU: 0x9ED0, offset: 0x9ED0, size: 0x8, addend: 0x0, symName: __Z5solvev, symObjAddr: 0x0, symBinAddr: 0x1000045A4, symSize: 0x4 }
  - { offsetInCU: 0x9EEA, offset: 0x9EEA, size: 0x8, addend: 0x0, symName: _main, symObjAddr: 0x4, symBinAddr: 0x1000045A8, symSize: 0x4BC }
  - { offsetInCU: 0xA084, offset: 0xA084, size: 0x8, addend: 0x0, symName: __ZNSt3__16vectorINS_4pairIiiEENS_9allocatorIS2_EEEC1Em, symObjAddr: 0x4C0, symBinAddr: 0x100004A64, symSize: 0x34 }
  - { offsetInCU: 0xA0BF, offset: 0xA0BF, size: 0x8, addend: 0x0, symName: __ZNSt3__16vectorINS_4pairIiiEENS_9allocatorIS2_EEE5beginB7v160006Ev, symObjAddr: 0x4F4, symBinAddr: 0x100004A98, symSize: 0x30 }
  - { offsetInCU: 0xA0E7, offset: 0xA0E7, size: 0x8, addend: 0x0, symName: __ZNSt3__16vectorINS_4pairIiiEENS_9allocatorIS2_EEE3endB7v160006Ev, symObjAddr: 0x524, symBinAddr: 0x100004AC8, symSize: 0x30 }
  - { offsetInCU: 0xA10F, offset: 0xA10F, size: 0x8, addend: 0x0, symName: __ZNKSt3__111__wrap_iterIPNS_4pairIiiEEEdeB7v160006Ev, symObjAddr: 0x588, symBinAddr: 0x100004B2C, symSize: 0x18 }
  - { offsetInCU: 0xA135, offset: 0xA135, size: 0x8, addend: 0x0, symName: __ZNSt3__111__wrap_iterIPNS_4pairIiiEEEppB7v160006Ev, symObjAddr: 0x5A0, symBinAddr: 0x100004B44, symSize: 0x20 }
  - { offsetInCU: 0xA15B, offset: 0xA15B, size: 0x8, addend: 0x0, symName: __ZNSt3__112basic_stringIcNS_11char_traitsIcEENS_9allocatorIcEEEC1B7v160006Ev, symObjAddr: 0x5C0, symBinAddr: 0x100004B64, symSize: 0x2C }
  - { offsetInCU: 0xA185, offset: 0xA185, size: 0x8, addend: 0x0, symName: __ZNSt3__14pairIiiEC1B7v160006Ev, symObjAddr: 0x5EC, symBinAddr: 0x100004B90, symSize: 0x2C }
  - { offsetInCU: 0xA1AF, offset: 0xA1AF, size: 0x8, addend: 0x0, symName: __ZNSt3__16vectorINS_4pairIiiEENS_9allocatorIS2_EEEixB7v160006Em, symObjAddr: 0xA60, symBinAddr: 0x100005004, symSize: 0x24 }
  - { offsetInCU: 0xA1E6, offset: 0xA1E6, size: 0x8, addend: 0x0, symName: __ZNSt3__113basic_ostreamIcNS_11char_traitsIcEEElsB7v160006EPFRS3_S4_E, symObjAddr: 0xACC, symBinAddr: 0x100005070, symSize: 0x2C }
  - { offsetInCU: 0xA21A, offset: 0xA21A, size: 0x8, addend: 0x0, symName: __ZNSt3__16vectorINS_4pairIiiEENS_9allocatorIS2_EEED1B7v160006Ev, symObjAddr: 0xC24, symBinAddr: 0x1000051C8, symSize: 0x2C }
  - { offsetInCU: 0xA244, offset: 0xA244, size: 0x8, addend: 0x0, symName: __ZNSt3__16vectorINS_4pairIiiEENS_9allocatorIS2_EEEC2Em, symObjAddr: 0xC50, symBinAddr: 0x1000051F4, symSize: 0xE8 }
  - { offsetInCU: 0xA29E, offset: 0xA29E, size: 0x8, addend: 0x0, symName: __ZNSt3__117__compressed_pairIPNS_4pairIiiEENS_9allocatorIS2_EEEC1B7v160006IDnNS_18__default_init_tagEEEOT_OT0_, symObjAddr: 0xD38, symBinAddr: 0x1000052DC, symSize: 0x3C }
  - { offsetInCU: 0xA2F6, offset: 0xA2F6, size: 0x8, addend: 0x0, symName: __ZNSt3__16vectorINS_4pairIiiEENS_9allocatorIS2_EEE16__destroy_vectorC1ERS5_, symObjAddr: 0xDB4, symBinAddr: 0x100005358, symSize: 0x34 }
  - { offsetInCU: 0xA32F, offset: 0xA32F, size: 0x8, addend: 0x0, symName: __ZNSt3__16vectorINS_4pairIiiEENS_9allocatorIS2_EEE11__vallocateB7v160006Em, symObjAddr: 0xDF8, symBinAddr: 0x10000539C, symSize: 0xAC }
  - { offsetInCU: 0xA373, offset: 0xA373, size: 0x8, addend: 0x0, symName: __ZNSt3__16vectorINS_4pairIiiEENS_9allocatorIS2_EEE18__construct_at_endEm, symObjAddr: 0xEA4, symBinAddr: 0x100005448, symSize: 0xD0 }
  - { offsetInCU: 0xA3E6, offset: 0xA3E6, size: 0x8, addend: 0x0, symName: __ZNSt3__128__exception_guard_exceptionsINS_6vectorINS_4pairIiiEENS_9allocatorIS3_EEE16__destroy_vectorEE10__completeB7v160006Ev, symObjAddr: 0xF74, symBinAddr: 0x100005518, symSize: 0x1C }
  - { offsetInCU: 0xA40C, offset: 0xA40C, size: 0x8, addend: 0x0, symName: __ZNSt3__128__exception_guard_exceptionsINS_6vectorINS_4pairIiiEENS_9allocatorIS3_EEE16__destroy_vectorEED1B7v160006Ev, symObjAddr: 0xF90, symBinAddr: 0x100005534, symSize: 0x2C }
  - { offsetInCU: 0xA436, offset: 0xA436, size: 0x8, addend: 0x0, symName: __ZNSt3__117__compressed_pairIPNS_4pairIiiEENS_9allocatorIS2_EEEC2B7v160006IDnNS_18__default_init_tagEEEOT_OT0_, symObjAddr: 0xFBC, symBinAddr: 0x100005560, symSize: 0x40 }
  - { offsetInCU: 0xA48E, offset: 0xA48E, size: 0x8, addend: 0x0, symName: __ZNSt3__122__compressed_pair_elemIPNS_4pairIiiEELi0ELb0EEC2B7v160006IDnvEEOT_, symObjAddr: 0xFFC, symBinAddr: 0x1000055A0, symSize: 0x1C }
  - { offsetInCU: 0xA4D0, offset: 0xA4D0, size: 0x8, addend: 0x0, symName: __ZNSt3__122__compressed_pair_elemINS_9allocatorINS_4pairIiiEEEELi1ELb1EEC2B7v160006ENS_18__default_init_tagE, symObjAddr: 0x1018, symBinAddr: 0x1000055BC, symSize: 0x2C }
  - { offsetInCU: 0xA505, offset: 0xA505, size: 0x8, addend: 0x0, symName: __ZNSt3__19allocatorINS_4pairIiiEEEC2B7v160006Ev, symObjAddr: 0x1044, symBinAddr: 0x1000055E8, symSize: 0x2C }
  - { offsetInCU: 0xA52F, offset: 0xA52F, size: 0x8, addend: 0x0, symName: __ZNSt3__116__non_trivial_ifILb1ENS_9allocatorINS_4pairIiiEEEEEC2B7v160006Ev, symObjAddr: 0x1070, symBinAddr: 0x100005614, symSize: 0x14 }
  - { offsetInCU: 0xA559, offset: 0xA559, size: 0x8, addend: 0x0, symName: __ZNSt3__128__exception_guard_exceptionsINS_6vectorINS_4pairIiiEENS_9allocatorIS3_EEE16__destroy_vectorEEC1B7v160006ES7_, symObjAddr: 0x1084, symBinAddr: 0x100005628, symSize: 0x34 }
  - { offsetInCU: 0xA591, offset: 0xA591, size: 0x8, addend: 0x0, symName: __ZNSt3__128__exception_guard_exceptionsINS_6vectorINS_4pairIiiEENS_9allocatorIS3_EEE16__destroy_vectorEEC2B7v160006ES7_, symObjAddr: 0x10B8, symBinAddr: 0x10000565C, symSize: 0x24 }
  - { offsetInCU: 0xA5C9, offset: 0xA5C9, size: 0x8, addend: 0x0, symName: __ZNSt3__16vectorINS_4pairIiiEENS_9allocatorIS2_EEE16__destroy_vectorC2ERS5_, symObjAddr: 0x10DC, symBinAddr: 0x100005680, symSize: 0x20 }
  - { offsetInCU: 0xA602, offset: 0xA602, size: 0x8, addend: 0x0, symName: __ZNKSt3__16vectorINS_4pairIiiEENS_9allocatorIS2_EEE8max_sizeEv, symObjAddr: 0x10FC, symBinAddr: 0x1000056A0, symSize: 0x74 }
  - { offsetInCU: 0xA62A, offset: 0xA62A, size: 0x8, addend: 0x0, symName: __ZNKSt3__16vectorINS_4pairIiiEENS_9allocatorIS2_EEE20__throw_length_errorB7v160006Ev, symObjAddr: 0x1170, symBinAddr: 0x100005714, symSize: 0x1C }
  - { offsetInCU: 0xA650, offset: 0xA650, size: 0x8, addend: 0x0, symName: __ZNSt3__16vectorINS_4pairIiiEENS_9allocatorIS2_EEE7__allocB7v160006Ev, symObjAddr: 0x11CC, symBinAddr: 0x100005770, symSize: 0x28 }
  - { offsetInCU: 0xA676, offset: 0xA676, size: 0x8, addend: 0x0, symName: __ZNSt3__16vectorINS_4pairIiiEENS_9allocatorIS2_EEE9__end_capB7v160006Ev, symObjAddr: 0x11F4, symBinAddr: 0x100005798, symSize: 0x28 }
  - { offsetInCU: 0xA69C, offset: 0xA69C, size: 0x8, addend: 0x0, symName: __ZNKSt3__16vectorINS_4pairIiiEENS_9allocatorIS2_EEE14__annotate_newB7v160006Em, symObjAddr: 0x121C, symBinAddr: 0x1000057C0, symSize: 0xAC }
  - { offsetInCU: 0xA6DB, offset: 0xA6DB, size: 0x8, addend: 0x0, symName: __ZNSt3__116allocator_traitsINS_9allocatorINS_4pairIiiEEEEE8max_sizeB7v160006IS4_vEEmRKS4_, symObjAddr: 0x12F4, symBinAddr: 0x100005898, symSize: 0x24 }
  - { offsetInCU: 0xA709, offset: 0xA709, size: 0x8, addend: 0x0, symName: __ZNKSt3__16vectorINS_4pairIiiEENS_9allocatorIS2_EEE7__allocB7v160006Ev, symObjAddr: 0x1318, symBinAddr: 0x1000058BC, symSize: 0x28 }
  - { offsetInCU: 0xA72F, offset: 0xA72F, size: 0x8, addend: 0x0, symName: __ZNSt3__114numeric_limitsIlE3maxB7v160006Ev, symObjAddr: 0x1340, symBinAddr: 0x1000058E4, symSize: 0x14 }
  - { offsetInCU: 0xA757, offset: 0xA757, size: 0x8, addend: 0x0, symName: __ZNKSt3__16__lessImmEclB7v160006ERKmS3_, symObjAddr: 0x13A8, symBinAddr: 0x10000594C, symSize: 0x34 }
  - { offsetInCU: 0xA799, offset: 0xA799, size: 0x8, addend: 0x0, symName: __ZNKSt3__19allocatorINS_4pairIiiEEE8max_sizeB7v160006Ev, symObjAddr: 0x13DC, symBinAddr: 0x100005980, symSize: 0x14 }
  - { offsetInCU: 0xA7BF, offset: 0xA7BF, size: 0x8, addend: 0x0, symName: __ZNKSt3__117__compressed_pairIPNS_4pairIiiEENS_9allocatorIS2_EEE6secondB7v160006Ev, symObjAddr: 0x13F0, symBinAddr: 0x100005994, symSize: 0x24 }
  - { offsetInCU: 0xA7E5, offset: 0xA7E5, size: 0x8, addend: 0x0, symName: __ZNKSt3__122__compressed_pair_elemINS_9allocatorINS_4pairIiiEEEELi1ELb1EE5__getB7v160006Ev, symObjAddr: 0x1414, symBinAddr: 0x1000059B8, symSize: 0x14 }
  - { offsetInCU: 0xA80B, offset: 0xA80B, size: 0x8, addend: 0x0, symName: __ZNSt3__123__libcpp_numeric_limitsIlLb1EE3maxB7v160006Ev, symObjAddr: 0x1428, symBinAddr: 0x1000059CC, symSize: 0x8 }
  - { offsetInCU: 0xA81F, offset: 0xA81F, size: 0x8, addend: 0x0, symName: __ZNSt12length_errorC1B7v160006EPKc, symObjAddr: 0x1494, symBinAddr: 0x100005A38, symSize: 0x34 }
  - { offsetInCU: 0xA857, offset: 0xA857, size: 0x8, addend: 0x0, symName: __ZNSt12length_errorC2B7v160006EPKc, symObjAddr: 0x14C8, symBinAddr: 0x100005A6C, symSize: 0x4C }
  - { offsetInCU: 0xA88F, offset: 0xA88F, size: 0x8, addend: 0x0, symName: __ZNSt3__19allocatorINS_4pairIiiEEE8allocateB7v160006Em, symObjAddr: 0x1514, symBinAddr: 0x100005AB8, symSize: 0x84 }
  - { offsetInCU: 0xA8C3, offset: 0xA8C3, size: 0x8, addend: 0x0, symName: __ZNSt3__117__compressed_pairIPNS_4pairIiiEENS_9allocatorIS2_EEE6secondB7v160006Ev, symObjAddr: 0x1624, symBinAddr: 0x100005BC8, symSize: 0x24 }
  - { offsetInCU: 0xA8E9, offset: 0xA8E9, size: 0x8, addend: 0x0, symName: __ZNSt3__122__compressed_pair_elemINS_9allocatorINS_4pairIiiEEEELi1ELb1EE5__getB7v160006Ev, symObjAddr: 0x1648, symBinAddr: 0x100005BEC, symSize: 0x14 }
  - { offsetInCU: 0xA90F, offset: 0xA90F, size: 0x8, addend: 0x0, symName: __ZNSt3__117__compressed_pairIPNS_4pairIiiEENS_9allocatorIS2_EEE5firstB7v160006Ev, symObjAddr: 0x165C, symBinAddr: 0x100005C00, symSize: 0x24 }
  - { offsetInCU: 0xA935, offset: 0xA935, size: 0x8, addend: 0x0, symName: __ZNSt3__122__compressed_pair_elemIPNS_4pairIiiEELi0ELb0EE5__getB7v160006Ev, symObjAddr: 0x1680, symBinAddr: 0x100005C24, symSize: 0x14 }
  - { offsetInCU: 0xA95B, offset: 0xA95B, size: 0x8, addend: 0x0, symName: __ZNKSt3__16vectorINS_4pairIiiEENS_9allocatorIS2_EEE31__annotate_contiguous_containerB7v160006EPKvS7_S7_S7_, symObjAddr: 0x1694, symBinAddr: 0x100005C38, symSize: 0x20 }
  - { offsetInCU: 0xA9B1, offset: 0xA9B1, size: 0x8, addend: 0x0, symName: __ZNKSt3__16vectorINS_4pairIiiEENS_9allocatorIS2_EEE4dataB7v160006Ev, symObjAddr: 0x16B4, symBinAddr: 0x100005C58, symSize: 0x28 }
  - { offsetInCU: 0xA9D7, offset: 0xA9D7, size: 0x8, addend: 0x0, symName: __ZNKSt3__16vectorINS_4pairIiiEENS_9allocatorIS2_EEE8capacityB7v160006Ev, symObjAddr: 0x16DC, symBinAddr: 0x100005C80, symSize: 0x40 }
  - { offsetInCU: 0xA9FD, offset: 0xA9FD, size: 0x8, addend: 0x0, symName: __ZNKSt3__16vectorINS_4pairIiiEENS_9allocatorIS2_EEE9__end_capB7v160006Ev, symObjAddr: 0x1730, symBinAddr: 0x100005CD4, symSize: 0x28 }
  - { offsetInCU: 0xAA23, offset: 0xAA23, size: 0x8, addend: 0x0, symName: __ZNKSt3__117__compressed_pairIPNS_4pairIiiEENS_9allocatorIS2_EEE5firstB7v160006Ev, symObjAddr: 0x1758, symBinAddr: 0x100005CFC, symSize: 0x24 }
  - { offsetInCU: 0xAA49, offset: 0xAA49, size: 0x8, addend: 0x0, symName: __ZNKSt3__122__compressed_pair_elemIPNS_4pairIiiEELi0ELb0EE5__getB7v160006Ev, symObjAddr: 0x177C, symBinAddr: 0x100005D20, symSize: 0x14 }
  - { offsetInCU: 0xAA88, offset: 0xAA88, size: 0x8, addend: 0x0, symName: __ZNSt3__16vectorINS_4pairIiiEENS_9allocatorIS2_EEE21_ConstructTransactionC1B7v160006ERS5_m, symObjAddr: 0x1790, symBinAddr: 0x100005D34, symSize: 0x3C }
  - { offsetInCU: 0xAAD0, offset: 0xAAD0, size: 0x8, addend: 0x0, symName: __ZNSt3__116allocator_traitsINS_9allocatorINS_4pairIiiEEEEE9constructB7v160006IS3_JEvEEvRS4_PT_DpOT0_, symObjAddr: 0x17CC, symBinAddr: 0x100005D70, symSize: 0x2C }
  - { offsetInCU: 0xAB12, offset: 0xAB12, size: 0x8, addend: 0x0, symName: __ZNSt3__16vectorINS_4pairIiiEENS_9allocatorIS2_EEE21_ConstructTransactionD1B7v160006Ev, symObjAddr: 0x17F8, symBinAddr: 0x100005D9C, symSize: 0x2C }
  - { offsetInCU: 0xAB3C, offset: 0xAB3C, size: 0x8, addend: 0x0, symName: __ZNSt3__16vectorINS_4pairIiiEENS_9allocatorIS2_EEE21_ConstructTransactionC2B7v160006ERS5_m, symObjAddr: 0x1824, symBinAddr: 0x100005DC8, symSize: 0x44 }
  - { offsetInCU: 0xAB84, offset: 0xAB84, size: 0x8, addend: 0x0, symName: __ZNSt3__19allocatorINS_4pairIiiEEE9constructB7v160006IS2_JEEEvPT_DpOT0_, symObjAddr: 0x1868, symBinAddr: 0x100005E0C, symSize: 0x28 }
  - { offsetInCU: 0xABC6, offset: 0xABC6, size: 0x8, addend: 0x0, symName: __ZNSt3__16vectorINS_4pairIiiEENS_9allocatorIS2_EEE21_ConstructTransactionD2B7v160006Ev, symObjAddr: 0x1890, symBinAddr: 0x100005E34, symSize: 0x20 }
  - { offsetInCU: 0xABF0, offset: 0xABF0, size: 0x8, addend: 0x0, symName: __ZNSt3__128__exception_guard_exceptionsINS_6vectorINS_4pairIiiEENS_9allocatorIS3_EEE16__destroy_vectorEED2B7v160006Ev, symObjAddr: 0x18B0, symBinAddr: 0x100005E54, symSize: 0x48 }
  - { offsetInCU: 0xAC1A, offset: 0xAC1A, size: 0x8, addend: 0x0, symName: __ZNSt3__16vectorINS_4pairIiiEENS_9allocatorIS2_EEE16__destroy_vectorclB7v160006Ev, symObjAddr: 0x18F8, symBinAddr: 0x100005E9C, symSize: 0x9C }
  - { offsetInCU: 0xAC40, offset: 0xAC40, size: 0x8, addend: 0x0, symName: __ZNKSt3__16vectorINS_4pairIiiEENS_9allocatorIS2_EEE17__annotate_deleteB7v160006Ev, symObjAddr: 0x1994, symBinAddr: 0x100005F38, symSize: 0xB8 }
  - { offsetInCU: 0xAC66, offset: 0xAC66, size: 0x8, addend: 0x0, symName: __ZNSt3__16vectorINS_4pairIiiEENS_9allocatorIS2_EEE7__clearB7v160006Ev, symObjAddr: 0x1A5C, symBinAddr: 0x100006000, symSize: 0x28 }
  - { offsetInCU: 0xAC8C, offset: 0xAC8C, size: 0x8, addend: 0x0, symName: __ZNSt3__116allocator_traitsINS_9allocatorINS_4pairIiiEEEEE10deallocateB7v160006ERS4_PS3_m, symObjAddr: 0x1A84, symBinAddr: 0x100006028, symSize: 0x34 }
  - { offsetInCU: 0xACCE, offset: 0xACCE, size: 0x8, addend: 0x0, symName: __ZNKSt3__16vectorINS_4pairIiiEENS_9allocatorIS2_EEE4sizeB7v160006Ev, symObjAddr: 0x1AB8, symBinAddr: 0x10000605C, symSize: 0x28 }
  - { offsetInCU: 0xACF4, offset: 0xACF4, size: 0x8, addend: 0x0, symName: __ZNSt3__16vectorINS_4pairIiiEENS_9allocatorIS2_EEE22__base_destruct_at_endB7v160006EPS2_, symObjAddr: 0x1AE0, symBinAddr: 0x100006084, symSize: 0xA0 }
  - { offsetInCU: 0xAD38, offset: 0xAD38, size: 0x8, addend: 0x0, symName: __ZNSt3__116allocator_traitsINS_9allocatorINS_4pairIiiEEEEE7destroyB7v160006IS3_vEEvRS4_PT_, symObjAddr: 0x1B80, symBinAddr: 0x100006124, symSize: 0x2C }
  - { offsetInCU: 0xAD75, offset: 0xAD75, size: 0x8, addend: 0x0, symName: __ZNSt3__19allocatorINS_4pairIiiEEE7destroyB7v160006EPS2_, symObjAddr: 0x1BAC, symBinAddr: 0x100006150, symSize: 0x14 }
  - { offsetInCU: 0xADA9, offset: 0xADA9, size: 0x8, addend: 0x0, symName: __ZNSt3__19allocatorINS_4pairIiiEEE10deallocateB7v160006EPS2_m, symObjAddr: 0x1BC0, symBinAddr: 0x100006164, symSize: 0x70 }
  - { offsetInCU: 0xADEB, offset: 0xADEB, size: 0x8, addend: 0x0, symName: __ZNSt3__16vectorINS_4pairIiiEENS_9allocatorIS2_EEED2B7v160006Ev, symObjAddr: 0x1CAC, symBinAddr: 0x100006250, symSize: 0x3C }
  - { offsetInCU: 0xAE15, offset: 0xAE15, size: 0x8, addend: 0x0, symName: __ZNSt3__16vectorINS_4pairIiiEENS_9allocatorIS2_EEE11__make_iterB7v160006EPS2_, symObjAddr: 0x1CE8, symBinAddr: 0x10000628C, symSize: 0x34 }
  - { offsetInCU: 0xAE4A, offset: 0xAE4A, size: 0x8, addend: 0x0, symName: __ZNSt3__111__wrap_iterIPNS_4pairIiiEEEC1B7v160006EPKvS3_, symObjAddr: 0x1D1C, symBinAddr: 0x1000062C0, symSize: 0x3C }
  - { offsetInCU: 0xAE90, offset: 0xAE90, size: 0x8, addend: 0x0, symName: __ZNSt3__111__wrap_iterIPNS_4pairIiiEEEC2B7v160006EPKvS3_, symObjAddr: 0x1D58, symBinAddr: 0x1000062FC, symSize: 0x24 }
  - { offsetInCU: 0xAED6, offset: 0xAED6, size: 0x8, addend: 0x0, symName: __ZNKSt3__111__wrap_iterIPNS_4pairIiiEEE4baseB7v160006Ev, symObjAddr: 0x1DC4, symBinAddr: 0x100006368, symSize: 0x18 }
  - { offsetInCU: 0xAEFC, offset: 0xAEFC, size: 0x8, addend: 0x0, symName: __ZNSt3__112basic_stringIcNS_11char_traitsIcEENS_9allocatorIcEEEC2B7v160006Ev, symObjAddr: 0x1DDC, symBinAddr: 0x100006380, symSize: 0x44 }
  - { offsetInCU: 0xAF26, offset: 0xAF26, size: 0x8, addend: 0x0, symName: __ZNSt3__117__compressed_pairINS_12basic_stringIcNS_11char_traitsIcEENS_9allocatorIcEEE5__repES5_EC1B7v160006INS_18__default_init_tagESA_EEOT_OT0_, symObjAddr: 0x1E20, symBinAddr: 0x1000063C4, symSize: 0x3C }
  - { offsetInCU: 0xAF7E, offset: 0xAF7E, size: 0x8, addend: 0x0, symName: __ZNSt3__112basic_stringIcNS_11char_traitsIcEENS_9allocatorIcEEE14__default_initB7v160006Ev, symObjAddr: 0x1E6C, symBinAddr: 0x100006410, symSize: 0xB0 }
  - { offsetInCU: 0xAFD1, offset: 0xAFD1, size: 0x8, addend: 0x0, symName: __ZNSt3__117__compressed_pairINS_12basic_stringIcNS_11char_traitsIcEENS_9allocatorIcEEE5__repES5_EC2B7v160006INS_18__default_init_tagESA_EEOT_OT0_, symObjAddr: 0x1F1C, symBinAddr: 0x1000064C0, symSize: 0x3C }
  - { offsetInCU: 0xB029, offset: 0xB029, size: 0x8, addend: 0x0, symName: __ZNSt3__122__compressed_pair_elemINS_12basic_stringIcNS_11char_traitsIcEENS_9allocatorIcEEE5__repELi0ELb0EEC2B7v160006ENS_18__default_init_tagE, symObjAddr: 0x1F58, symBinAddr: 0x1000064FC, symSize: 0x14 }
  - { offsetInCU: 0xB05E, offset: 0xB05E, size: 0x8, addend: 0x0, symName: __ZNSt3__122__compressed_pair_elemINS_9allocatorIcEELi1ELb1EEC2B7v160006ENS_18__default_init_tagE, symObjAddr: 0x1F6C, symBinAddr: 0x100006510, symSize: 0x2C }
  - { offsetInCU: 0xB093, offset: 0xB093, size: 0x8, addend: 0x0, symName: __ZNSt3__19allocatorIcEC2B7v160006Ev, symObjAddr: 0x1F98, symBinAddr: 0x10000653C, symSize: 0x2C }
  - { offsetInCU: 0xB0BD, offset: 0xB0BD, size: 0x8, addend: 0x0, symName: __ZNSt3__116__non_trivial_ifILb1ENS_9allocatorIcEEEC2B7v160006Ev, symObjAddr: 0x1FC4, symBinAddr: 0x100006568, symSize: 0x14 }
  - { offsetInCU: 0xB0E7, offset: 0xB0E7, size: 0x8, addend: 0x0, symName: __ZNSt3__117__compressed_pairINS_12basic_stringIcNS_11char_traitsIcEENS_9allocatorIcEEE5__repES5_E5firstB7v160006Ev, symObjAddr: 0x1FD8, symBinAddr: 0x10000657C, symSize: 0x24 }
  - { offsetInCU: 0xB10D, offset: 0xB10D, size: 0x8, addend: 0x0, symName: __ZNSt3__112basic_stringIcNS_11char_traitsIcEENS_9allocatorIcEEE11__recommendB7v160006Em, symObjAddr: 0x1FFC, symBinAddr: 0x1000065A0, symSize: 0x9C }
  - { offsetInCU: 0xB140, offset: 0xB140, size: 0x8, addend: 0x0, symName: __ZNSt3__116allocator_traitsINS_9allocatorIcEEE8allocateB7v160006ERS2_m, symObjAddr: 0x2098, symBinAddr: 0x10000663C, symSize: 0x2C }
  - { offsetInCU: 0xB173, offset: 0xB173, size: 0x8, addend: 0x0, symName: __ZNSt3__112basic_stringIcNS_11char_traitsIcEENS_9allocatorIcEEE7__allocB7v160006Ev, symObjAddr: 0x20C4, symBinAddr: 0x100006668, symSize: 0x24 }
  - { offsetInCU: 0xB199, offset: 0xB199, size: 0x8, addend: 0x0, symName: __ZNSt3__112basic_stringIcNS_11char_traitsIcEENS_9allocatorIcEEE16__begin_lifetimeB7v160006EPcm, symObjAddr: 0x20E8, symBinAddr: 0x10000668C, symSize: 0x14 }
  - { offsetInCU: 0xB1CC, offset: 0xB1CC, size: 0x8, addend: 0x0, symName: __ZNSt3__112basic_stringIcNS_11char_traitsIcEENS_9allocatorIcEEE18__set_long_pointerB7v160006EPc, symObjAddr: 0x20FC, symBinAddr: 0x1000066A0, symSize: 0x38 }
  - { offsetInCU: 0xB201, offset: 0xB201, size: 0x8, addend: 0x0, symName: __ZNSt3__112basic_stringIcNS_11char_traitsIcEENS_9allocatorIcEEE14__set_long_capB7v160006Em, symObjAddr: 0x2134, symBinAddr: 0x1000066D8, symSize: 0x70 }
  - { offsetInCU: 0xB236, offset: 0xB236, size: 0x8, addend: 0x0, symName: __ZNSt3__112basic_stringIcNS_11char_traitsIcEENS_9allocatorIcEEE15__set_long_sizeB7v160006Em, symObjAddr: 0x21A4, symBinAddr: 0x100006748, symSize: 0x38 }
  - { offsetInCU: 0xB26B, offset: 0xB26B, size: 0x8, addend: 0x0, symName: __ZNSt3__122__compressed_pair_elemINS_12basic_stringIcNS_11char_traitsIcEENS_9allocatorIcEEE5__repELi0ELb0EE5__getB7v160006Ev, symObjAddr: 0x21DC, symBinAddr: 0x100006780, symSize: 0x14 }
  - { offsetInCU: 0xB291, offset: 0xB291, size: 0x8, addend: 0x0, symName: __ZNSt3__112basic_stringIcNS_11char_traitsIcEENS_9allocatorIcEEE10__align_itB7v160006ILm16EEEmm, symObjAddr: 0x21F0, symBinAddr: 0x100006794, symSize: 0x1C }
  - { offsetInCU: 0xB2BF, offset: 0xB2BF, size: 0x8, addend: 0x0, symName: __ZNSt3__19allocatorIcE8allocateB7v160006Em, symObjAddr: 0x220C, symBinAddr: 0x1000067B0, symSize: 0x84 }
  - { offsetInCU: 0xB2FD, offset: 0xB2FD, size: 0x8, addend: 0x0, symName: __ZNSt3__116allocator_traitsINS_9allocatorIcEEE8max_sizeB7v160006IS2_vEEmRKS2_, symObjAddr: 0x2290, symBinAddr: 0x100006834, symSize: 0x24 }
  - { offsetInCU: 0xB32B, offset: 0xB32B, size: 0x8, addend: 0x0, symName: __ZNKSt3__19allocatorIcE8max_sizeB7v160006Ev, symObjAddr: 0x22B4, symBinAddr: 0x100006858, symSize: 0x14 }
  - { offsetInCU: 0xB351, offset: 0xB351, size: 0x8, addend: 0x0, symName: __ZNSt3__117__compressed_pairINS_12basic_stringIcNS_11char_traitsIcEENS_9allocatorIcEEE5__repES5_E6secondB7v160006Ev, symObjAddr: 0x22C8, symBinAddr: 0x10000686C, symSize: 0x24 }
  - { offsetInCU: 0xB377, offset: 0xB377, size: 0x8, addend: 0x0, symName: __ZNSt3__122__compressed_pair_elemINS_9allocatorIcEELi1ELb1EE5__getB7v160006Ev, symObjAddr: 0x22EC, symBinAddr: 0x100006890, symSize: 0x14 }
  - { offsetInCU: 0xB39D, offset: 0xB39D, size: 0x8, addend: 0x0, symName: __ZNSt3__14pairIiiEC2B7v160006Ev, symObjAddr: 0x2300, symBinAddr: 0x1000068A4, symSize: 0x1C }
  - { offsetInCU: 0xB46E, offset: 0xB46E, size: 0x8, addend: 0x0, symName: __ZNKSt3__113basic_istreamIcNS_11char_traitsIcEEE6sentrycvbB7v160006Ev, symObjAddr: 0x231C, symBinAddr: 0x1000068C0, symSize: 0x1C }
  - { offsetInCU: 0xB494, offset: 0xB494, size: 0x8, addend: 0x0, symName: __ZNSt3__112basic_stringIcNS_11char_traitsIcEENS_9allocatorIcEEE5clearB7v160006Ev, symObjAddr: 0x2338, symBinAddr: 0x1000068DC, symSize: 0x9C }
  - { offsetInCU: 0xB4BC, offset: 0xB4BC, size: 0x8, addend: 0x0, symName: __ZNKSt3__18ios_base5widthB7v160006Ev, symObjAddr: 0x23D4, symBinAddr: 0x100006978, symSize: 0x18 }
  - { offsetInCU: 0xB4E4, offset: 0xB4E4, size: 0x8, addend: 0x0, symName: __ZNKSt3__112basic_stringIcNS_11char_traitsIcEENS_9allocatorIcEEE8max_sizeB7v160006Ev, symObjAddr: 0x23EC, symBinAddr: 0x100006990, symSize: 0xAC }
  - { offsetInCU: 0xB537, offset: 0xB537, size: 0x8, addend: 0x0, symName: __ZNKSt3__19basic_iosIcNS_11char_traitsIcEEE5rdbufB7v160006Ev, symObjAddr: 0x24C4, symBinAddr: 0x100006A68, symSize: 0x24 }
  - { offsetInCU: 0xB55F, offset: 0xB55F, size: 0x8, addend: 0x0, symName: __ZNSt3__115basic_streambufIcNS_11char_traitsIcEEE5sgetcB7v160006Ev, symObjAddr: 0x24E8, symBinAddr: 0x100006A8C, symSize: 0x70 }
  - { offsetInCU: 0xB585, offset: 0xB585, size: 0x8, addend: 0x0, symName: __ZNSt3__111char_traitsIcE11eq_int_typeEii, symObjAddr: 0x2558, symBinAddr: 0x100006AFC, symSize: 0x28 }
  - { offsetInCU: 0xB5B6, offset: 0xB5B6, size: 0x8, addend: 0x0, symName: __ZNSt3__111char_traitsIcE3eofEv, symObjAddr: 0x2580, symBinAddr: 0x100006B24, symSize: 0x8 }
  - { offsetInCU: 0xB5CA, offset: 0xB5CA, size: 0x8, addend: 0x0, symName: __ZNSt3__111char_traitsIcE12to_char_typeEi, symObjAddr: 0x2588, symBinAddr: 0x100006B2C, symSize: 0x18 }
  - { offsetInCU: 0xB61A, offset: 0xB61A, size: 0x8, addend: 0x0, symName: __ZNKSt3__15ctypeIcE2isB7v160006Ejc, symObjAddr: 0x25A0, symBinAddr: 0x100006B44, symSize: 0x7C }
  - { offsetInCU: 0xB65E, offset: 0xB65E, size: 0x8, addend: 0x0, symName: __ZNSt3__115basic_streambufIcNS_11char_traitsIcEEE6sbumpcB7v160006Ev, symObjAddr: 0x261C, symBinAddr: 0x100006BC0, symSize: 0x78 }
  - { offsetInCU: 0xB684, offset: 0xB684, size: 0x8, addend: 0x0, symName: __ZNSt3__18ios_base5widthB7v160006El, symObjAddr: 0x2694, symBinAddr: 0x100006C38, symSize: 0x2C }
  - { offsetInCU: 0xB6CA, offset: 0xB6CA, size: 0x8, addend: 0x0, symName: __ZNSt3__18ios_base18__setstate_nothrowB7v160006Ej, symObjAddr: 0x26C0, symBinAddr: 0x100006C64, symSize: 0x64 }
  - { offsetInCU: 0xB6FF, offset: 0xB6FF, size: 0x8, addend: 0x0, symName: __ZNKSt3__19basic_iosIcNS_11char_traitsIcEEE10exceptionsB7v160006Ev, symObjAddr: 0x2724, symBinAddr: 0x100006CC8, symSize: 0x24 }
  - { offsetInCU: 0xB725, offset: 0xB725, size: 0x8, addend: 0x0, symName: __ZNSt3__19basic_iosIcNS_11char_traitsIcEEE8setstateB7v160006Ej, symObjAddr: 0x2748, symBinAddr: 0x100006CEC, symSize: 0x2C }
  - { offsetInCU: 0xB75A, offset: 0xB75A, size: 0x8, addend: 0x0, symName: __ZNKSt3__112basic_stringIcNS_11char_traitsIcEENS_9allocatorIcEEE9__is_longB7v160006Ev, symObjAddr: 0x2784, symBinAddr: 0x100006D28, symSize: 0x74 }
  - { offsetInCU: 0xB780, offset: 0xB780, size: 0x8, addend: 0x0, symName: __ZNSt3__111char_traitsIcE6assignERcRKc, symObjAddr: 0x27F8, symBinAddr: 0x100006D9C, symSize: 0x24 }
  - { offsetInCU: 0xB7B1, offset: 0xB7B1, size: 0x8, addend: 0x0, symName: __ZNSt3__112basic_stringIcNS_11char_traitsIcEENS_9allocatorIcEEE18__get_long_pointerB7v160006Ev, symObjAddr: 0x281C, symBinAddr: 0x100006DC0, symSize: 0x28 }
  - { offsetInCU: 0xB7D7, offset: 0xB7D7, size: 0x8, addend: 0x0, symName: __ZNSt3__112basic_stringIcNS_11char_traitsIcEENS_9allocatorIcEEE19__get_short_pointerB7v160006Ev, symObjAddr: 0x2844, symBinAddr: 0x100006DE8, symSize: 0x28 }
  - { offsetInCU: 0xB7FD, offset: 0xB7FD, size: 0x8, addend: 0x0, symName: __ZNSt3__112basic_stringIcNS_11char_traitsIcEENS_9allocatorIcEEE16__set_short_sizeB7v160006Em, symObjAddr: 0x286C, symBinAddr: 0x100006E10, symSize: 0x78 }
  - { offsetInCU: 0xB832, offset: 0xB832, size: 0x8, addend: 0x0, symName: __ZNKSt3__117__compressed_pairINS_12basic_stringIcNS_11char_traitsIcEENS_9allocatorIcEEE5__repES5_E5firstB7v160006Ev, symObjAddr: 0x28E4, symBinAddr: 0x100006E88, symSize: 0x24 }
  - { offsetInCU: 0xB858, offset: 0xB858, size: 0x8, addend: 0x0, symName: __ZNKSt3__122__compressed_pair_elemINS_12basic_stringIcNS_11char_traitsIcEENS_9allocatorIcEEE5__repELi0ELb0EE5__getB7v160006Ev, symObjAddr: 0x2908, symBinAddr: 0x100006EAC, symSize: 0x14 }
  - { offsetInCU: 0xB87E, offset: 0xB87E, size: 0x8, addend: 0x0, symName: __ZNSt3__114pointer_traitsIPcE10pointer_toB7v160006ERc, symObjAddr: 0x291C, symBinAddr: 0x100006EC0, symSize: 0x14 }
  - { offsetInCU: 0xB8A1, offset: 0xB8A1, size: 0x8, addend: 0x0, symName: __ZNKSt3__112basic_stringIcNS_11char_traitsIcEENS_9allocatorIcEEE7__allocB7v160006Ev, symObjAddr: 0x2930, symBinAddr: 0x100006ED4, symSize: 0x24 }
  - { offsetInCU: 0xB8C7, offset: 0xB8C7, size: 0x8, addend: 0x0, symName: __ZNSt3__114numeric_limitsImE3maxB7v160006Ev, symObjAddr: 0x2954, symBinAddr: 0x100006EF8, symSize: 0x14 }
  - { offsetInCU: 0xB8DB, offset: 0xB8DB, size: 0x8, addend: 0x0, symName: __ZNKSt3__117__compressed_pairINS_12basic_stringIcNS_11char_traitsIcEENS_9allocatorIcEEE5__repES5_E6secondB7v160006Ev, symObjAddr: 0x2968, symBinAddr: 0x100006F0C, symSize: 0x24 }
  - { offsetInCU: 0xB901, offset: 0xB901, size: 0x8, addend: 0x0, symName: __ZNKSt3__122__compressed_pair_elemINS_9allocatorIcEELi1ELb1EE5__getB7v160006Ev, symObjAddr: 0x298C, symBinAddr: 0x100006F30, symSize: 0x14 }
  - { offsetInCU: 0xB927, offset: 0xB927, size: 0x8, addend: 0x0, symName: __ZNSt3__123__libcpp_numeric_limitsImLb1EE3maxB7v160006Ev, symObjAddr: 0x29A0, symBinAddr: 0x100006F44, symSize: 0x8 }
  - { offsetInCU: 0xB93B, offset: 0xB93B, size: 0x8, addend: 0x0, symName: __ZNKSt3__18ios_base5rdbufB7v160006Ev, symObjAddr: 0x29A8, symBinAddr: 0x100006F4C, symSize: 0x18 }
  - { offsetInCU: 0xB961, offset: 0xB961, size: 0x8, addend: 0x0, symName: __ZNSt3__111char_traitsIcE11to_int_typeEc, symObjAddr: 0x29C0, symBinAddr: 0x100006F64, symSize: 0x14 }
  - { offsetInCU: 0xB983, offset: 0xB983, size: 0x8, addend: 0x0, symName: __Z7isasciii, symObjAddr: 0x29D4, symBinAddr: 0x100006F78, symSize: 0x24 }
  - { offsetInCU: 0xB9B0, offset: 0xB9B0, size: 0x8, addend: 0x0, symName: __ZNKSt3__18ios_base10exceptionsB7v160006Ev, symObjAddr: 0x29F8, symBinAddr: 0x100006F9C, symSize: 0x18 }
  - { offsetInCU: 0xB9D8, offset: 0xB9D8, size: 0x8, addend: 0x0, symName: __ZNSt3__18ios_base8setstateB7v160006Ej, symObjAddr: 0x2A10, symBinAddr: 0x100006FB4, symSize: 0x34 }
  - { offsetInCU: 0xBA0F, offset: 0xBA0F, size: 0x8, addend: 0x0, symName: __ZNSt3__111char_traitsIcE6lengthEPKc, symObjAddr: 0x2A44, symBinAddr: 0x100006FE8, symSize: 0x48 }
  - { offsetInCU: 0xBA32, offset: 0xBA32, size: 0x8, addend: 0x0, symName: __ZNKSt3__112basic_stringIcNS_11char_traitsIcEENS_9allocatorIcEEE4sizeB7v160006Ev, symObjAddr: 0x2A8C, symBinAddr: 0x100007030, symSize: 0x54 }
  - { offsetInCU: 0xBA58, offset: 0xBA58, size: 0x8, addend: 0x0, symName: __ZNKSt3__112basic_stringIcNS_11char_traitsIcEENS_9allocatorIcEEE15__get_long_sizeB7v160006Ev, symObjAddr: 0x2B04, symBinAddr: 0x1000070A8, symSize: 0x28 }
  - { offsetInCU: 0xBA7E, offset: 0xBA7E, size: 0x8, addend: 0x0, symName: __ZNKSt3__112basic_stringIcNS_11char_traitsIcEENS_9allocatorIcEEE16__get_short_sizeB7v160006Ev, symObjAddr: 0x2B2C, symBinAddr: 0x1000070D0, symSize: 0x34 }
  - { offsetInCU: 0xBAC2, offset: 0xBAC2, size: 0x8, addend: 0x0, symName: __ZNKSt3__113basic_ostreamIcNS_11char_traitsIcEEE6sentrycvbB7v160006Ev, symObjAddr: 0x2D54, symBinAddr: 0x1000072F8, symSize: 0x1C }
  - { offsetInCU: 0xBAE8, offset: 0xBAE8, size: 0x8, addend: 0x0, symName: __ZNSt3__119ostreambuf_iteratorIcNS_11char_traitsIcEEEC1B7v160006ERNS_13basic_ostreamIcS2_EE, symObjAddr: 0x2FB8, symBinAddr: 0x10000755C, symSize: 0x34 }
  - { offsetInCU: 0xBB20, offset: 0xBB20, size: 0x8, addend: 0x0, symName: __ZNKSt3__18ios_base5flagsB7v160006Ev, symObjAddr: 0x2FEC, symBinAddr: 0x100007590, symSize: 0x18 }
  - { offsetInCU: 0xBB48, offset: 0xBB48, size: 0x8, addend: 0x0, symName: __ZNKSt3__19basic_iosIcNS_11char_traitsIcEEE4fillB7v160006Ev, symObjAddr: 0x3004, symBinAddr: 0x1000075A8, symSize: 0x64 }
  - { offsetInCU: 0xBB70, offset: 0xBB70, size: 0x8, addend: 0x0, symName: __ZNKSt3__119ostreambuf_iteratorIcNS_11char_traitsIcEEE6failedB7v160006Ev, symObjAddr: 0x3068, symBinAddr: 0x10000760C, symSize: 0x24 }
  - { offsetInCU: 0xBB96, offset: 0xBB96, size: 0x8, addend: 0x0, symName: __ZNSt3__115basic_streambufIcNS_11char_traitsIcEEE5sputnB7v160006EPKcl, symObjAddr: 0x308C, symBinAddr: 0x100007630, symSize: 0x3C }
  - { offsetInCU: 0xBBD8, offset: 0xBBD8, size: 0x8, addend: 0x0, symName: __ZNSt3__112basic_stringIcNS_11char_traitsIcEENS_9allocatorIcEEEC1B7v160006Emc, symObjAddr: 0x30C8, symBinAddr: 0x10000766C, symSize: 0x3C }
  - { offsetInCU: 0xBC20, offset: 0xBC20, size: 0x8, addend: 0x0, symName: __ZNKSt3__112basic_stringIcNS_11char_traitsIcEENS_9allocatorIcEEE4dataB7v160006Ev, symObjAddr: 0x3104, symBinAddr: 0x1000076A8, symSize: 0x28 }
  - { offsetInCU: 0xBC46, offset: 0xBC46, size: 0x8, addend: 0x0, symName: __ZNSt3__112basic_stringIcNS_11char_traitsIcEENS_9allocatorIcEEEC2B7v160006Emc, symObjAddr: 0x312C, symBinAddr: 0x1000076D0, symSize: 0x54 }
  - { offsetInCU: 0xBC8E, offset: 0xBC8E, size: 0x8, addend: 0x0, symName: __ZNKSt3__112basic_stringIcNS_11char_traitsIcEENS_9allocatorIcEEE13__get_pointerB7v160006Ev, symObjAddr: 0x3194, symBinAddr: 0x100007738, symSize: 0x54 }
  - { offsetInCU: 0xBCB4, offset: 0xBCB4, size: 0x8, addend: 0x0, symName: __ZNKSt3__112basic_stringIcNS_11char_traitsIcEENS_9allocatorIcEEE18__get_long_pointerB7v160006Ev, symObjAddr: 0x31E8, symBinAddr: 0x10000778C, symSize: 0x28 }
  - { offsetInCU: 0xBCDA, offset: 0xBCDA, size: 0x8, addend: 0x0, symName: __ZNKSt3__112basic_stringIcNS_11char_traitsIcEENS_9allocatorIcEEE19__get_short_pointerB7v160006Ev, symObjAddr: 0x3210, symBinAddr: 0x1000077B4, symSize: 0x28 }
  - { offsetInCU: 0xBD00, offset: 0xBD00, size: 0x8, addend: 0x0, symName: __ZNSt3__114pointer_traitsIPKcE10pointer_toB7v160006ERS1_, symObjAddr: 0x3238, symBinAddr: 0x1000077DC, symSize: 0x14 }
  - { offsetInCU: 0xBD23, offset: 0xBD23, size: 0x8, addend: 0x0, symName: __ZNSt3__119ostreambuf_iteratorIcNS_11char_traitsIcEEEC2B7v160006ERNS_13basic_ostreamIcS2_EE, symObjAddr: 0x324C, symBinAddr: 0x1000077F0, symSize: 0x68 }
  - { offsetInCU: 0xBD5B, offset: 0xBD5B, size: 0x8, addend: 0x0, symName: __ZNKSt3__19basic_iosIcNS_11char_traitsIcEEE5widenB7v160006Ec, symObjAddr: 0x32B4, symBinAddr: 0x100007858, symSize: 0x8C }
  - { offsetInCU: 0xBD92, offset: 0xBD92, size: 0x8, addend: 0x0, symName: __ZNKSt3__15ctypeIcE5widenB7v160006Ec, symObjAddr: 0x3340, symBinAddr: 0x1000078E4, symSize: 0x38 }
...
